target datalayout = "e-m:e-p270:32:32-p271:32:32-p272:64:64-i64:64-i128:128-f80:128-n8:16:32:64-S128"
target triple = "x86_64-pc-linux-gnu"

%struct._cmstransform_struct = type { i32, i32, ptr, ptr, ptr, ptr, ptr, %struct._cmsCACHE, ptr, ptr, ptr, ptr, i32, i32, %struct.cmsCIEXYZ, %struct.cmsCIEXYZ, ptr, i32, double, i32, ptr, ptr, ptr, ptr, ptr, i32, i32 }
%struct._cmsCACHE = type { [16 x i16], [16 x i16] }
%struct.cmsCIEXYZ = type { double, double, double }

; Function Attrs: nounwind uwtable
define internal i32 @PixelSize(i32 noundef %0) #0 {
  %2 = alloca i32, align 4
  %3 = alloca i32, align 4
  %4 = alloca i32, align 4
  store i32 %0, ptr %3, align 4
  %5 = load i32, ptr %3, align 4
  %6 = and i32 %5, 7
  store i32 %6, ptr %4, align 4
  %7 = load i32, ptr %4, align 4
  %8 = icmp eq i32 %7, 0
  br i1 %8, label %9, label %10

9:                                                ; preds = %1
  store i32 8, ptr %2, align 4
  br label %12

10:                                               ; preds = %1
  %11 = load i32, ptr %4, align 4
  store i32 %11, ptr %2, align 4
  br label %12

12:                                               ; preds = %10, %9
  %13 = load i32, ptr %2, align 4
  ret i32 %13
}

; Function Attrs: nounwind uwtable
define internal ptr @UnrollXYZDoubleToFloat(ptr noundef %0, ptr noundef %1, ptr noundef %2, i32 noundef %3) #0 {
  %5 = alloca ptr, align 8
  %6 = alloca ptr, align 8
  %7 = alloca ptr, align 8
  %8 = alloca ptr, align 8
  %9 = alloca i32, align 4
  %10 = alloca ptr, align 8
  store ptr %0, ptr %6, align 8
  store ptr %1, ptr %7, align 8
  store ptr %2, ptr %8, align 8
  store i32 %3, ptr %9, align 4
  %11 = load ptr, ptr %8, align 8
  store ptr %11, ptr %10, align 8
  %12 = load ptr, ptr %6, align 8
  %13 = getelementptr inbounds %struct._cmstransform_struct, ptr %12, i32 0, i32 0
  %14 = load i32, ptr %13, align 8
  %15 = lshr i32 %14, 12
  %16 = and i32 %15, 1
  %17 = icmp ne i32 %16, 0
  br i1 %17, label %18, label %53

18:                                               ; preds = %4
  %19 = load ptr, ptr %6, align 8
  %20 = getelementptr inbounds %struct._cmstransform_struct, ptr %19, i32 0, i32 0
  %21 = load i32, ptr %20, align 8
  %22 = call i32 @PixelSize(i32 noundef %21)
  %23 = load i32, ptr %9, align 4
  %24 = udiv i32 %23, %22
  store i32 %24, ptr %9, align 4
  %25 = load ptr, ptr %10, align 8
  %26 = getelementptr inbounds double, ptr %25, i64 0
  %27 = load double, ptr %26, align 8
  %28 = fdiv double %27, 0x3FFFFFE000000000
  %29 = fptrunc double %28 to float
  %30 = load ptr, ptr %7, align 8
  %31 = getelementptr inbounds float, ptr %30, i64 0
  store float %29, ptr %31, align 4
  %32 = load ptr, ptr %10, align 8
  %33 = load i32, ptr %9, align 4
  %34 = zext i32 %33 to i64
  %35 = getelementptr inbounds double, ptr %32, i64 %34
  %36 = load double, ptr %35, align 8
  %37 = fdiv double %36, 0x3FFFFFE000000000
  %38 = fptrunc double %37 to float
  %39 = load ptr, ptr %7, align 8
  %40 = getelementptr inbounds float, ptr %39, i64 1
  store float %38, ptr %40, align 4
  %41 = load ptr, ptr %10, align 8
  %42 = load i32, ptr %9, align 4
  %43 = mul i32 %42, 2
  %44 = zext i32 %43 to i64
  %45 = getelementptr inbounds double, ptr %41, i64 %44
  %46 = load double, ptr %45, align 8
  %47 = fdiv double %46, 0x3FFFFFE000000000
  %48 = fptrunc double %47 to float
  %49 = load ptr, ptr %7, align 8
  %50 = getelementptr inbounds float, ptr %49, i64 2
  store float %48, ptr %50, align 4
  %51 = load ptr, ptr %8, align 8
  %52 = getelementptr inbounds i8, ptr %51, i64 8
  store ptr %52, ptr %5, align 8
  br label %86

53:                                               ; preds = %4
  %54 = load ptr, ptr %10, align 8
  %55 = getelementptr inbounds double, ptr %54, i64 0
  %56 = load double, ptr %55, align 8
  %57 = fdiv double %56, 0x3FFFFFE000000000
  %58 = fptrunc double %57 to float
  %59 = load ptr, ptr %7, align 8
  %60 = getelementptr inbounds float, ptr %59, i64 0
  store float %58, ptr %60, align 4
  %61 = load ptr, ptr %10, align 8
  %62 = getelementptr inbounds double, ptr %61, i64 1
  %63 = load double, ptr %62, align 8
  %64 = fdiv double %63, 0x3FFFFFE000000000
  %65 = fptrunc double %64 to float
  %66 = load ptr, ptr %7, align 8
  %67 = getelementptr inbounds float, ptr %66, i64 1
  store float %65, ptr %67, align 4
  %68 = load ptr, ptr %10, align 8
  %69 = getelementptr inbounds double, ptr %68, i64 2
  %70 = load double, ptr %69, align 8
  %71 = fdiv double %70, 0x3FFFFFE000000000
  %72 = fptrunc double %71 to float
  %73 = load ptr, ptr %7, align 8
  %74 = getelementptr inbounds float, ptr %73, i64 2
  store float %72, ptr %74, align 4
  %75 = load ptr, ptr %6, align 8
  %76 = getelementptr inbounds %struct._cmstransform_struct, ptr %75, i32 0, i32 0
  %77 = load i32, ptr %76, align 8
  %78 = lshr i32 %77, 7
  %79 = and i32 %78, 7
  %80 = add i32 3, %79
  %81 = zext i32 %80 to i64
  %82 = mul i64 8, %81
  %83 = load ptr, ptr %8, align 8
  %84 = getelementptr inbounds i8, ptr %83, i64 %82
  store ptr %84, ptr %8, align 8
  %85 = load ptr, ptr %8, align 8
  store ptr %85, ptr %5, align 8
  br label %86

86:                                               ; preds = %53, %18
  %87 = load ptr, ptr %5, align 8
  ret ptr %87
}