; Function Attrs: mustprogress nofree norecurse nosync nounwind willreturn memory(argmem: readwrite) uwtable
define internal nonnull ptr @UnrollXYZDoubleToFloat(ptr nocapture noundef readonly %0, ptr nocapture noundef writeonly %1, ptr noundef readonly %2, i32 noundef %3) #3 {
  %5 = load i32, ptr %0, align 8
  %6 = and i32 %5, 4096
  %.not = icmp eq i32 %6, 0
  br i1 %.not, label %28, label %7

7:                                                ; preds = %4
  %8 = and i32 %5, 7
  %9 = icmp eq i32 %8, 0
  %..i = select i1 %9, i32 8, i32 %8
  %10 = udiv i32 %3, %..i
  %11 = load double, ptr %2, align 8
  %12 = fdiv double %11, 0x3FFFFFE000000000
  %13 = fptrunc double %12 to float
  store float %13, ptr %1, align 4
  %14 = zext i32 %10 to i64
  %15 = getelementptr inbounds double, ptr %2, i64 %14
  %16 = load double, ptr %15, align 8
  %17 = fdiv double %16, 0x3FFFFFE000000000
  %18 = fptrunc double %17 to float
  %19 = getelementptr inbounds i8, ptr %1, i64 4
  store float %18, ptr %19, align 4
  %20 = shl i32 %10, 1
  %21 = zext i32 %20 to i64
  %22 = getelementptr inbounds double, ptr %2, i64 %21
  %23 = load double, ptr %22, align 8
  %24 = fdiv double %23, 0x3FFFFFE000000000
  %25 = fptrunc double %24 to float
  %26 = getelementptr inbounds i8, ptr %1, i64 8
  store float %25, ptr %26, align 4
  %27 = getelementptr inbounds i8, ptr %2, i64 8
  br label %48

28:                                               ; preds = %4
  %29 = load double, ptr %2, align 8
  %30 = fdiv double %29, 0x3FFFFFE000000000
  %31 = fptrunc double %30 to float
  store float %31, ptr %1, align 4
  %32 = getelementptr inbounds i8, ptr %2, i64 8
  %33 = load double, ptr %32, align 8
  %34 = fdiv double %33, 0x3FFFFFE000000000
  %35 = fptrunc double %34 to float
  %36 = getelementptr inbounds i8, ptr %1, i64 4
  store float %35, ptr %36, align 4
  %37 = getelementptr inbounds i8, ptr %2, i64 16
  %38 = load double, ptr %37, align 8
  %39 = fdiv double %38, 0x3FFFFFE000000000
  %40 = fptrunc double %39 to float
  %41 = getelementptr inbounds i8, ptr %1, i64 8
  store float %40, ptr %41, align 4
  %42 = load i32, ptr %0, align 8
  %43 = lshr i32 %42, 4
  %44 = and i32 %43, 56
  %45 = zext nneg i32 %44 to i64
  %46 = getelementptr inbounds i8, ptr %2, i64 %45
  %47 = getelementptr inbounds i8, ptr %46, i64 24
  br label %48

48:                                               ; preds = %28, %7
  %.0 = phi ptr [ %27, %7 ], [ %47, %28 ]
  ret ptr %.0
}